
turnoff_switch.elf:     file format elf32-avr

Sections:
Idx Name          Size      VMA       LMA       File off  Algn
  0 .text         00000116  00000000  00000000  00000094  2**1
                  CONTENTS, ALLOC, LOAD, READONLY, CODE
  1 .rodata       00000020  00004116  00000116  000001aa  2**0
                  CONTENTS, ALLOC, LOAD, READONLY, DATA
  2 .data         00000002  00800040  00000136  000001ca  2**0
                  CONTENTS, ALLOC, LOAD, DATA
  3 .comment      00000030  00000000  00000000  000001cc  2**0
                  CONTENTS, READONLY
  4 .note.gnu.avr.deviceinfo 0000003c  00000000  00000000  000001fc  2**2
                  CONTENTS, READONLY
  5 .debug_info   00000305  00000000  00000000  00000238  2**0
                  CONTENTS, READONLY, DEBUGGING
  6 .debug_abbrev 000002d9  00000000  00000000  0000053d  2**0
                  CONTENTS, READONLY, DEBUGGING
  7 .debug_line   000000d9  00000000  00000000  00000816  2**0
                  CONTENTS, READONLY, DEBUGGING
  8 .debug_str    00000115  00000000  00000000  000008ef  2**0
                  CONTENTS, READONLY, DEBUGGING

Disassembly of section .text:

00000000 <__vectors>:
   0:	0a c0       	rjmp	.+20     	; 0x16 <__ctors_end>
   2:	1c c0       	rjmp	.+56     	; 0x3c <__bad_interrupt>
   4:	1b c0       	rjmp	.+54     	; 0x3c <__bad_interrupt>
   6:	1a c0       	rjmp	.+52     	; 0x3c <__bad_interrupt>
   8:	19 c0       	rjmp	.+50     	; 0x3c <__bad_interrupt>
   a:	18 c0       	rjmp	.+48     	; 0x3c <__bad_interrupt>
   c:	17 c0       	rjmp	.+46     	; 0x3c <__bad_interrupt>
   e:	16 c0       	rjmp	.+44     	; 0x3c <__bad_interrupt>
  10:	52 c0       	rjmp	.+164    	; 0xb6 <__vector_8>
  12:	14 c0       	rjmp	.+40     	; 0x3c <__bad_interrupt>
  14:	13 c0       	rjmp	.+38     	; 0x3c <__bad_interrupt>

00000016 <__ctors_end>:
  16:	11 27       	eor	r17, r17
  18:	1f bf       	out	0x3f, r17	; 63
  1a:	cf e5       	ldi	r28, 0x5F	; 95
  1c:	d0 e0       	ldi	r29, 0x00	; 0
  1e:	de bf       	out	0x3e, r29	; 62
  20:	cd bf       	out	0x3d, r28	; 61

00000022 <__do_copy_data>:
  22:	20 e0       	ldi	r18, 0x00	; 0
  24:	a0 e4       	ldi	r26, 0x40	; 64
  26:	b0 e0       	ldi	r27, 0x00	; 0
  28:	e6 e3       	ldi	r30, 0x36	; 54
  2a:	f1 e4       	ldi	r31, 0x41	; 65
  2c:	02 c0       	rjmp	.+4      	; 0x32 <__do_copy_data+0x10>
  2e:	31 91       	ld	r19, Z+
  30:	3d 93       	st	X+, r19
  32:	a2 34       	cpi	r26, 0x42	; 66
  34:	b2 07       	cpc	r27, r18
  36:	d9 f7       	brne	.-10     	; 0x2e <__do_copy_data+0xc>
  38:	02 d0       	rcall	.+4      	; 0x3e <main>
  3a:	6b c0       	rjmp	.+214    	; 0x112 <_exit>

0000003c <__bad_interrupt>:
  3c:	e1 cf       	rjmp	.-62     	; 0x0 <__vectors>

0000003e <main>:
  3e:	47 e8       	ldi	r20, 0x87	; 135
  40:	53 e1       	ldi	r21, 0x13	; 19
  42:	41 50       	subi	r20, 0x01	; 1
  44:	50 40       	sbci	r21, 0x00	; 0
  46:	e9 f7       	brne	.-6      	; 0x42 <__SREG__+0x3>
  48:	00 c0       	rjmp	.+0      	; 0x4a <__SREG__+0xb>
  4a:	00 00       	nop
  4c:	41 e0       	ldi	r20, 0x01	; 1
  4e:	41 b9       	out	0x01, r20	; 1
  50:	52 e0       	ldi	r21, 0x02	; 2
  52:	57 bb       	out	0x17, r21	; 23
  54:	55 e0       	ldi	r21, 0x05	; 5
  56:	52 b9       	out	0x02, r21	; 2
  58:	67 ea       	ldi	r22, 0xA7	; 167
  5a:	71 e6       	ldi	r23, 0x61	; 97
  5c:	61 50       	subi	r22, 0x01	; 1
  5e:	70 40       	sbci	r23, 0x00	; 0
  60:	e9 f7       	brne	.-6      	; 0x5c <__SREG__+0x1d>
  62:	00 c0       	rjmp	.+0      	; 0x64 <__stack+0x5>
  64:	00 00       	nop
  66:	4b bb       	out	0x1b, r20	; 27
  68:	47 ec       	ldi	r20, 0xC7	; 199
  6a:	4d bb       	out	0x1d, r20	; 29
  6c:	ee 99       	sbic	0x1d, 6	; 29
  6e:	fe cf       	rjmp	.-4      	; 0x6c <__stack+0xd>
  70:	49 b3       	in	r20, 0x19	; 25
  72:	50 e0       	ldi	r21, 0x00	; 0
  74:	4f 5f       	subi	r20, 0xFF	; 255
  76:	5f 4f       	sbci	r21, 0xFF	; 255
  78:	51 a9       	sts	0x41, r21	; 0x800041 <__DATA_REGION_ORIGIN__+0x1>
  7a:	40 a9       	sts	0x40, r20	; 0x800040 <__DATA_REGION_ORIGIN__>
  7c:	ef 9a       	sbi	0x1d, 7	; 29
  7e:	ee 99       	sbic	0x1d, 6	; 29
  80:	fe cf       	rjmp	.-4      	; 0x7e <__stack+0x1f>
  82:	e9 b3       	in	r30, 0x19	; 25
  84:	e2 95       	swap	r30
  86:	ef 70       	andi	r30, 0x0F	; 15
  88:	f0 e0       	ldi	r31, 0x00	; 0
  8a:	ee 0f       	add	r30, r30
  8c:	ff 1f       	adc	r31, r31
  8e:	ea 5e       	subi	r30, 0xEA	; 234
  90:	fe 4b       	sbci	r31, 0xBE	; 190
  92:	41 91       	ld	r20, Z+
  94:	50 81       	ld	r21, Z
  96:	51 a9       	sts	0x41, r21	; 0x800041 <__DATA_REGION_ORIGIN__+0x1>
  98:	40 a9       	sts	0x40, r20	; 0x800040 <__DATA_REGION_ORIGIN__>
  9a:	ef 98       	cbi	0x1d, 7	; 29
  9c:	46 e4       	ldi	r20, 0x46	; 70
  9e:	41 bf       	out	0x31, r20	; 49
  a0:	a8 95       	wdr
  a2:	78 94       	sei
  a4:	4a b7       	in	r20, 0x3a	; 58
  a6:	41 7f       	andi	r20, 0xF1	; 241
  a8:	44 60       	ori	r20, 0x04	; 4
  aa:	4a bf       	out	0x3a, r20	; 58
  ac:	4a b7       	in	r20, 0x3a	; 58
  ae:	41 60       	ori	r20, 0x01	; 1
  b0:	4a bf       	out	0x3a, r20	; 58
  b2:	88 95       	sleep
  b4:	fe cf       	rjmp	.-4      	; 0xb2 <__stack+0x53>

000000b6 <__vector_8>:
  b6:	1f 93       	push	r17
  b8:	0f 93       	push	r16
  ba:	0f b7       	in	r16, 0x3f	; 63
  bc:	0f 93       	push	r16
  be:	10 e0       	ldi	r17, 0x00	; 0
  c0:	4f 93       	push	r20
  c2:	5f 93       	push	r21
  c4:	6f 93       	push	r22
  c6:	40 a1       	lds	r20, 0x40	; 0x800040 <__DATA_REGION_ORIGIN__>
  c8:	51 a1       	lds	r21, 0x41	; 0x800041 <__DATA_REGION_ORIGIN__+0x1>
  ca:	4f 3f       	cpi	r20, 0xFF	; 255
  cc:	5f 4f       	sbci	r21, 0xFF	; 255
  ce:	c9 f0       	breq	.+50     	; 0x102 <__vector_8+0x4c>
  d0:	40 a1       	lds	r20, 0x40	; 0x800040 <__DATA_REGION_ORIGIN__>
  d2:	51 a1       	lds	r21, 0x41	; 0x800041 <__DATA_REGION_ORIGIN__+0x1>
  d4:	41 50       	subi	r20, 0x01	; 1
  d6:	51 0b       	sbc	r21, r17
  d8:	51 a9       	sts	0x41, r21	; 0x800041 <__DATA_REGION_ORIGIN__+0x1>
  da:	40 a9       	sts	0x40, r20	; 0x800040 <__DATA_REGION_ORIGIN__>
  dc:	45 2b       	or	r20, r21
  de:	89 f4       	brne	.+34     	; 0x102 <__vector_8+0x4c>
  e0:	48 ed       	ldi	r20, 0xD8	; 216
  e2:	50 e0       	ldi	r21, 0x00	; 0
  e4:	0f b7       	in	r16, 0x3f	; 63
  e6:	f8 94       	cli
  e8:	a8 95       	wdr
  ea:	4c bf       	out	0x3c, r20	; 60
  ec:	51 b7       	in	r21, 0x31	; 49
  ee:	57 7f       	andi	r21, 0xF7	; 247
  f0:	51 bf       	out	0x31, r21	; 49
  f2:	0f bf       	out	0x3f, r16	; 63
  f4:	ef 98       	cbi	0x1d, 7	; 29
  f6:	10 98       	cbi	0x02, 0	; 2
  f8:	41 e0       	ldi	r20, 0x01	; 1
  fa:	50 e0       	ldi	r21, 0x00	; 0
  fc:	51 a9       	sts	0x41, r21	; 0x800041 <__DATA_REGION_ORIGIN__+0x1>
  fe:	40 a9       	sts	0x40, r20	; 0x800040 <__DATA_REGION_ORIGIN__>
 100:	ff cf       	rjmp	.-2      	; 0x100 <__vector_8+0x4a>
 102:	6f 91       	pop	r22
 104:	5f 91       	pop	r21
 106:	4f 91       	pop	r20
 108:	0f 91       	pop	r16
 10a:	0f bf       	out	0x3f, r16	; 63
 10c:	0f 91       	pop	r16
 10e:	1f 91       	pop	r17
 110:	18 95       	reti

00000112 <_exit>:
 112:	f8 94       	cli

00000114 <__stop_program>:
 114:	ff cf       	rjmp	.-2      	; 0x114 <__stop_program>
